target datalayout = "e-m:e-p270:32:32-p271:32:32-p272:64:64-i64:64-i128:128-f80:128-n8:16:32:64-S128"
target triple = "x86_64-unknown-linux-gnu"

%"class.cvc5::internal::NodeTemplate" = type { ptr }
%"class.cvc5::internal::theory::quantifiers::ieval::InstEvaluatorManager" = type { %"class.cvc5::internal::theory::QuantifiersUtil", ptr, ptr, %"class.std::map" }
%"class.cvc5::internal::theory::QuantifiersUtil" = type { %"class.cvc5::internal::EnvObj" }
%"class.cvc5::internal::EnvObj" = type { ptr, ptr }
%"class.std::map" = type { %"class.std::_Rb_tree" }
%"class.std::_Rb_tree" = type { %"struct.std::_Rb_tree<std::pair<cvc5::internal::NodeTemplate<true>, cvc5::internal::theory::quantifiers::ieval::TermEvaluatorMode>, std::pair<const std::pair<cvc5::internal::NodeTemplate<true>, cvc5::internal::theory::quantifiers::ieval::TermEvaluatorMode>, std::unique_ptr<cvc5::internal::theory::quantifiers::ieval::InstEvaluator>>, std::_Select1st<std::pair<const std::pair<cvc5::internal::NodeTemplate<true>, cvc5::internal::theory::quantifiers::ieval::TermEvaluatorMode>, std::unique_ptr<cvc5::internal::theory::quantifiers::ieval::InstEvaluator>>>, std::less<std::pair<cvc5::internal::NodeTemplate<true>, cvc5::internal::theory::quantifiers::ieval::TermEvaluatorMode>>>::_Rb_tree_impl" }
%"struct.std::_Rb_tree<std::pair<cvc5::internal::NodeTemplate<true>, cvc5::internal::theory::quantifiers::ieval::TermEvaluatorMode>, std::pair<const std::pair<cvc5::internal::NodeTemplate<true>, cvc5::internal::theory::quantifiers::ieval::TermEvaluatorMode>, std::unique_ptr<cvc5::internal::theory::quantifiers::ieval::InstEvaluator>>, std::_Select1st<std::pair<const std::pair<cvc5::internal::NodeTemplate<true>, cvc5::internal::theory::quantifiers::ieval::TermEvaluatorMode>, std::unique_ptr<cvc5::internal::theory::quantifiers::ieval::InstEvaluator>>>, std::less<std::pair<cvc5::internal::NodeTemplate<true>, cvc5::internal::theory::quantifiers::ieval::TermEvaluatorMode>>>::_Rb_tree_impl" = type { %"struct.std::_Rb_tree_key_compare", %"struct.std::_Rb_tree_header" }
%"struct.std::_Rb_tree_key_compare" = type { %"struct.std::less" }
%"struct.std::less" = type { i8 }
%"struct.std::_Rb_tree_header" = type { %"struct.std::_Rb_tree_node_base", i64 }
%"struct.std::_Rb_tree_node_base" = type { i32, ptr, ptr, ptr }
%"struct.std::_Rb_tree_iterator" = type { ptr }
%"struct.std::pair" = type { %"struct.std::pair.256", %"class.std::unique_ptr.258" }
%"struct.std::pair.256" = type <{ %"class.cvc5::internal::NodeTemplate", i32, [4 x i8] }>
%"class.std::unique_ptr.258" = type { %"struct.std::__uniq_ptr_data.259" }
%"struct.std::__uniq_ptr_data.259" = type { %"class.std::__uniq_ptr_impl.260" }
%"class.std::__uniq_ptr_impl.260" = type { %"class.std::tuple.261" }
%"class.std::tuple.261" = type { %"struct.std::_Tuple_impl.262" }
%"struct.std::_Tuple_impl.262" = type { %"struct.std::_Head_base.265" }
%"struct.std::_Head_base.265" = type { ptr }
%"struct.std::_Rb_tree_node" = type { %"struct.std::_Rb_tree_node_base", %"struct.__gnu_cxx::__aligned_membuf" }
%"struct.__gnu_cxx::__aligned_membuf" = type { [24 x i8] }

; Function Attrs: mustprogress nounwind uwtable
define linkonce_odr hidden noundef nonnull align 8 dereferenceable(8) ptr @_ZNSt10_Head_baseILm0EPN4cvc58internal6theory11quantifiers5ieval13InstEvaluatorELb0EE7_M_headERKS7_(ptr noundef nonnull align 8 dereferenceable(8) %__b) #5 comdat align 2 {
entry:
  %__b.addr = alloca ptr, align 8
  store ptr %__b, ptr %__b.addr, align 8
  %0 = load ptr, ptr %__b.addr, align 8
  %_M_head_impl = getelementptr inbounds %"struct.std::_Head_base.265", ptr %0, i32 0, i32 0
  ret ptr %_M_head_impl
}

; Function Attrs: mustprogress nounwind uwtable
define linkonce_odr hidden noundef nonnull align 8 dereferenceable(8) ptr @_ZNSt11_Tuple_implILm0EJPN4cvc58internal6theory11quantifiers5ieval13InstEvaluatorESt14default_deleteIS5_EEE7_M_headERKS9_(ptr noundef nonnull align 8 dereferenceable(8) %__t) #5 comdat align 2 {
entry:
  %__t.addr = alloca ptr, align 8
  store ptr %__t, ptr %__t.addr, align 8
  %0 = load ptr, ptr %__t.addr, align 8
  %call = call noundef nonnull align 8 dereferenceable(8) ptr @_ZNSt10_Head_baseILm0EPN4cvc58internal6theory11quantifiers5ieval13InstEvaluatorELb0EE7_M_headERKS7_(ptr noundef nonnull align 8 dereferenceable(8) %0) #3
  ret ptr %call
}

; Function Attrs: mustprogress nounwind uwtable
define linkonce_odr hidden noundef nonnull align 8 dereferenceable(8) ptr @_ZSt12__get_helperILm0EPN4cvc58internal6theory11quantifiers5ieval13InstEvaluatorEJSt14default_deleteIS5_EEERKT0_RKSt11_Tuple_implIXT_EJS9_DpT1_EE(ptr noundef nonnull align 8 dereferenceable(8) %__t) #5 comdat {
entry:
  %__t.addr = alloca ptr, align 8
  store ptr %__t, ptr %__t.addr, align 8
  %0 = load ptr, ptr %__t.addr, align 8
  %call = call noundef nonnull align 8 dereferenceable(8) ptr @_ZNSt11_Tuple_implILm0EJPN4cvc58internal6theory11quantifiers5ieval13InstEvaluatorESt14default_deleteIS5_EEE7_M_headERKS9_(ptr noundef nonnull align 8 dereferenceable(8) %0) #3
  ret ptr %call
}

; Function Attrs: mustprogress nounwind uwtable
define linkonce_odr hidden noundef nonnull align 8 dereferenceable(8) ptr @_ZSt3getILm0EJPN4cvc58internal6theory11quantifiers5ieval13InstEvaluatorESt14default_deleteIS5_EEERKNSt13tuple_elementIXT_ESt5tupleIJDpT0_EEE4typeERKSD_(ptr noundef nonnull align 8 dereferenceable(8) %__t) #5 comdat {
entry:
  %__t.addr = alloca ptr, align 8
  store ptr %__t, ptr %__t.addr, align 8
  %0 = load ptr, ptr %__t.addr, align 8
  %call = call noundef nonnull align 8 dereferenceable(8) ptr @_ZSt12__get_helperILm0EPN4cvc58internal6theory11quantifiers5ieval13InstEvaluatorEJSt14default_deleteIS5_EEERKT0_RKSt11_Tuple_implIXT_EJS9_DpT1_EE(ptr noundef nonnull align 8 dereferenceable(8) %0) #3
  ret ptr %call
}

; Function Attrs: mustprogress nounwind uwtable
define linkonce_odr hidden noundef ptr @_ZN9__gnu_cxx16__aligned_membufISt4pairIKS1_IN4cvc58internal12NodeTemplateILb1EEENS3_6theory11quantifiers5ieval17TermEvaluatorModeEESt10unique_ptrINS8_13InstEvaluatorESt14default_deleteISD_EEEE7_M_addrEv(ptr noundef nonnull align 8 dereferenceable(24) %this) #5 comdat align 2 {
entry:
  %this.addr = alloca ptr, align 8
  store ptr %this, ptr %this.addr, align 8
  %this1 = load ptr, ptr %this.addr, align 8
  %_M_storage = getelementptr inbounds %"struct.__gnu_cxx::__aligned_membuf", ptr %this1, i32 0, i32 0
  ret ptr %_M_storage
}

; Function Attrs: mustprogress nounwind uwtable
define linkonce_odr hidden noundef ptr @_ZNKSt15__uniq_ptr_implIN4cvc58internal6theory11quantifiers5ieval13InstEvaluatorESt14default_deleteIS5_EE6_M_ptrEv(ptr noundef nonnull align 8 dereferenceable(8) %this) #5 comdat align 2 {
entry:
  %this.addr = alloca ptr, align 8
  store ptr %this, ptr %this.addr, align 8
  %this1 = load ptr, ptr %this.addr, align 8
  %_M_t = getelementptr inbounds %"class.std::__uniq_ptr_impl.260", ptr %this1, i32 0, i32 0
  %call = call noundef nonnull align 8 dereferenceable(8) ptr @_ZSt3getILm0EJPN4cvc58internal6theory11quantifiers5ieval13InstEvaluatorESt14default_deleteIS5_EEERKNSt13tuple_elementIXT_ESt5tupleIJDpT0_EEE4typeERKSD_(ptr noundef nonnull align 8 dereferenceable(8) %_M_t) #3
  %0 = load ptr, ptr %call, align 8
  ret ptr %0
}

; Function Attrs: mustprogress nounwind uwtable
define linkonce_odr hidden noundef ptr @_ZN9__gnu_cxx16__aligned_membufISt4pairIKS1_IN4cvc58internal12NodeTemplateILb1EEENS3_6theory11quantifiers5ieval17TermEvaluatorModeEESt10unique_ptrINS8_13InstEvaluatorESt14default_deleteISD_EEEE6_M_ptrEv(ptr noundef nonnull align 8 dereferenceable(24) %this) #5 comdat align 2 {
entry:
  %this.addr = alloca ptr, align 8
  store ptr %this, ptr %this.addr, align 8
  %this1 = load ptr, ptr %this.addr, align 8
  %call = call noundef ptr @_ZN9__gnu_cxx16__aligned_membufISt4pairIKS1_IN4cvc58internal12NodeTemplateILb1EEENS3_6theory11quantifiers5ieval17TermEvaluatorModeEESt10unique_ptrINS8_13InstEvaluatorESt14default_deleteISD_EEEE7_M_addrEv(ptr noundef nonnull align 8 dereferenceable(24) %this1) #3
  ret ptr %call
}

; Function Attrs: mustprogress nounwind uwtable
define linkonce_odr hidden void @_ZNSt17_Rb_tree_iteratorISt4pairIKS0_IN4cvc58internal12NodeTemplateILb1EEENS2_6theory11quantifiers5ieval17TermEvaluatorModeEESt10unique_ptrINS7_13InstEvaluatorESt14default_deleteISC_EEEEC2EPSt18_Rb_tree_node_base(ptr noundef nonnull align 8 dereferenceable(8) %this, ptr noundef %__x) unnamed_addr #5 comdat align 2 {
entry:
  %this.addr = alloca ptr, align 8
  %__x.addr = alloca ptr, align 8
  store ptr %this, ptr %this.addr, align 8
  store ptr %__x, ptr %__x.addr, align 8
  %this1 = load ptr, ptr %this.addr, align 8
  %_M_node = getelementptr inbounds %"struct.std::_Rb_tree_iterator", ptr %this1, i32 0, i32 0
  %0 = load ptr, ptr %__x.addr, align 8
  store ptr %0, ptr %_M_node, align 8
  ret void
}

; Function Attrs: mustprogress nounwind uwtable
define linkonce_odr hidden noundef ptr @_ZNKSt10unique_ptrIN4cvc58internal6theory11quantifiers5ieval13InstEvaluatorESt14default_deleteIS5_EE3getEv(ptr noundef nonnull align 8 dereferenceable(8) %this) #5 comdat align 2 {
entry:
  %this.addr = alloca ptr, align 8
  store ptr %this, ptr %this.addr, align 8
  %this1 = load ptr, ptr %this.addr, align 8
  %_M_t = getelementptr inbounds %"class.std::unique_ptr.258", ptr %this1, i32 0, i32 0
  %call = call noundef ptr @_ZNKSt15__uniq_ptr_implIN4cvc58internal6theory11quantifiers5ieval13InstEvaluatorESt14default_deleteIS5_EE6_M_ptrEv(ptr noundef nonnull align 8 dereferenceable(8) %_M_t) #3
  ret ptr %call
}

; Function Attrs: mustprogress nounwind uwtable
define linkonce_odr hidden noundef ptr @_ZNSt13_Rb_tree_nodeISt4pairIKS0_IN4cvc58internal12NodeTemplateILb1EEENS2_6theory11quantifiers5ieval17TermEvaluatorModeEESt10unique_ptrINS7_13InstEvaluatorESt14default_deleteISC_EEEE9_M_valptrEv(ptr noundef nonnull align 8 dereferenceable(56) %this) #5 comdat align 2 {
entry:
  %this.addr = alloca ptr, align 8
  store ptr %this, ptr %this.addr, align 8
  %this1 = load ptr, ptr %this.addr, align 8
  %_M_storage = getelementptr inbounds %"struct.std::_Rb_tree_node", ptr %this1, i32 0, i32 1
  %call = call noundef ptr @_ZN9__gnu_cxx16__aligned_membufISt4pairIKS1_IN4cvc58internal12NodeTemplateILb1EEENS3_6theory11quantifiers5ieval17TermEvaluatorModeEESt10unique_ptrINS8_13InstEvaluatorESt14default_deleteISD_EEEE6_M_ptrEv(ptr noundef nonnull align 8 dereferenceable(24) %_M_storage) #3
  ret ptr %call
}

; Function Attrs: mustprogress nounwind uwtable
define linkonce_odr hidden ptr @_ZNSt8_Rb_treeISt4pairIN4cvc58internal12NodeTemplateILb1EEENS2_6theory11quantifiers5ieval17TermEvaluatorModeEES0_IKS9_St10unique_ptrINS7_13InstEvaluatorESt14default_deleteISC_EEESt10_Select1stISG_ESt4lessIS9_ESaISG_EE3endEv(ptr noundef nonnull align 8 dereferenceable(48) %this) #5 comdat align 2 {
entry:
  %retval = alloca %"struct.std::_Rb_tree_iterator", align 8
  %this.addr = alloca ptr, align 8
  store ptr %this, ptr %this.addr, align 8
  %this1 = load ptr, ptr %this.addr, align 8
  %_M_impl = getelementptr inbounds %"class.std::_Rb_tree", ptr %this1, i32 0, i32 0
  %add.ptr = getelementptr inbounds i8, ptr %_M_impl, i64 8
  %_M_header = getelementptr inbounds %"struct.std::_Rb_tree_header", ptr %add.ptr, i32 0, i32 0
  call void @_ZNSt17_Rb_tree_iteratorISt4pairIKS0_IN4cvc58internal12NodeTemplateILb1EEENS2_6theory11quantifiers5ieval17TermEvaluatorModeEESt10unique_ptrINS7_13InstEvaluatorESt14default_deleteISC_EEEEC2EPSt18_Rb_tree_node_base(ptr noundef nonnull align 8 dereferenceable(8) %retval, ptr noundef %_M_header) #3
  %coerce.dive = getelementptr inbounds %"struct.std::_Rb_tree_iterator", ptr %retval, i32 0, i32 0
  %0 = load ptr, ptr %coerce.dive, align 8
  ret ptr %0
}

; Function Attrs: mustprogress nounwind uwtable
define linkonce_odr hidden ptr @_ZNSt8_Rb_treeISt4pairIN4cvc58internal12NodeTemplateILb1EEENS2_6theory11quantifiers5ieval17TermEvaluatorModeEES0_IKS9_St10unique_ptrINS7_13InstEvaluatorESt14default_deleteISC_EEESt10_Select1stISG_ESt4lessIS9_ESaISG_EE5beginEv(ptr noundef nonnull align 8 dereferenceable(48) %this) #5 comdat align 2 {
entry:
  %retval = alloca %"struct.std::_Rb_tree_iterator", align 8
  %this.addr = alloca ptr, align 8
  store ptr %this, ptr %this.addr, align 8
  %this1 = load ptr, ptr %this.addr, align 8
  %_M_impl = getelementptr inbounds %"class.std::_Rb_tree", ptr %this1, i32 0, i32 0
  %add.ptr = getelementptr inbounds i8, ptr %_M_impl, i64 8
  %_M_header = getelementptr inbounds %"struct.std::_Rb_tree_header", ptr %add.ptr, i32 0, i32 0
  %_M_left = getelementptr inbounds %"struct.std::_Rb_tree_node_base", ptr %_M_header, i32 0, i32 2
  %0 = load ptr, ptr %_M_left, align 8
  call void @_ZNSt17_Rb_tree_iteratorISt4pairIKS0_IN4cvc58internal12NodeTemplateILb1EEENS2_6theory11quantifiers5ieval17TermEvaluatorModeEESt10unique_ptrINS7_13InstEvaluatorESt14default_deleteISC_EEEEC2EPSt18_Rb_tree_node_base(ptr noundef nonnull align 8 dereferenceable(8) %retval, ptr noundef %0) #3
  %coerce.dive = getelementptr inbounds %"struct.std::_Rb_tree_iterator", ptr %retval, i32 0, i32 0
  %1 = load ptr, ptr %coerce.dive, align 8
  ret ptr %1
}

; Function Attrs: mustprogress nounwind uwtable
define linkonce_odr hidden noundef nonnull align 8 dereferenceable(8) ptr @_ZNSt17_Rb_tree_iteratorISt4pairIKS0_IN4cvc58internal12NodeTemplateILb1EEENS2_6theory11quantifiers5ieval17TermEvaluatorModeEESt10unique_ptrINS7_13InstEvaluatorESt14default_deleteISC_EEEEppEv(ptr noundef nonnull align 8 dereferenceable(8) %this) #5 comdat align 2 {
entry:
  %this.addr = alloca ptr, align 8
  store ptr %this, ptr %this.addr, align 8
  %this1 = load ptr, ptr %this.addr, align 8
  %_M_node = getelementptr inbounds %"struct.std::_Rb_tree_iterator", ptr %this1, i32 0, i32 0
  %0 = load ptr, ptr %_M_node, align 8
  %call = call noundef ptr @_ZSt18_Rb_tree_incrementPSt18_Rb_tree_node_base(ptr noundef %0) #13
  %_M_node2 = getelementptr inbounds %"struct.std::_Rb_tree_iterator", ptr %this1, i32 0, i32 0
  store ptr %call, ptr %_M_node2, align 8
  ret ptr %this1
}

; Function Attrs: mustprogress nounwind uwtable
define linkonce_odr hidden noundef ptr @_ZNKSt10unique_ptrIN4cvc58internal6theory11quantifiers5ieval13InstEvaluatorESt14default_deleteIS5_EEptEv(ptr noundef nonnull align 8 dereferenceable(8) %this) #5 comdat align 2 {
entry:
  %this.addr = alloca ptr, align 8
  store ptr %this, ptr %this.addr, align 8
  %this1 = load ptr, ptr %this.addr, align 8
  %call = call noundef ptr @_ZNKSt10unique_ptrIN4cvc58internal6theory11quantifiers5ieval13InstEvaluatorESt14default_deleteIS5_EE3getEv(ptr noundef nonnull align 8 dereferenceable(8) %this1) #3
  ret ptr %call
}

; Function Attrs: mustprogress nounwind uwtable
define linkonce_odr hidden noundef nonnull align 8 dereferenceable(24) ptr @_ZNKSt17_Rb_tree_iteratorISt4pairIKS0_IN4cvc58internal12NodeTemplateILb1EEENS2_6theory11quantifiers5ieval17TermEvaluatorModeEESt10unique_ptrINS7_13InstEvaluatorESt14default_deleteISC_EEEEdeEv(ptr noundef nonnull align 8 dereferenceable(8) %this) #5 comdat align 2 {
entry:
  %this.addr = alloca ptr, align 8
  store ptr %this, ptr %this.addr, align 8
  %this1 = load ptr, ptr %this.addr, align 8
  %_M_node = getelementptr inbounds %"struct.std::_Rb_tree_iterator", ptr %this1, i32 0, i32 0
  %0 = load ptr, ptr %_M_node, align 8
  %call = call noundef ptr @_ZNSt13_Rb_tree_nodeISt4pairIKS0_IN4cvc58internal12NodeTemplateILb1EEENS2_6theory11quantifiers5ieval17TermEvaluatorModeEESt10unique_ptrINS7_13InstEvaluatorESt14default_deleteISC_EEEE9_M_valptrEv(ptr noundef nonnull align 8 dereferenceable(56) %0)
  ret ptr %call
}

; Function Attrs: mustprogress nounwind uwtable
define linkonce_odr noundef zeroext i1 @_ZStneRKSt17_Rb_tree_iteratorISt4pairIKS0_IN4cvc58internal12NodeTemplateILb1EEENS2_6theory11quantifiers5ieval17TermEvaluatorModeEESt10unique_ptrINS7_13InstEvaluatorESt14default_deleteISC_EEEESJ_(ptr noundef nonnull align 8 dereferenceable(8) %__x, ptr noundef nonnull align 8 dereferenceable(8) %__y) #5 comdat {
entry:
  %__x.addr = alloca ptr, align 8
  %__y.addr = alloca ptr, align 8
  store ptr %__x, ptr %__x.addr, align 8
  store ptr %__y, ptr %__y.addr, align 8
  %0 = load ptr, ptr %__x.addr, align 8
  %_M_node = getelementptr inbounds %"struct.std::_Rb_tree_iterator", ptr %0, i32 0, i32 0
  %1 = load ptr, ptr %_M_node, align 8
  %2 = load ptr, ptr %__y.addr, align 8
  %_M_node1 = getelementptr inbounds %"struct.std::_Rb_tree_iterator", ptr %2, i32 0, i32 0
  %3 = load ptr, ptr %_M_node1, align 8
  %cmp = icmp ne ptr %1, %3
  ret i1 %cmp
}

; Function Attrs: mustprogress nounwind uwtable
define linkonce_odr hidden ptr @_ZNSt3mapISt4pairIN4cvc58internal12NodeTemplateILb1EEENS2_6theory11quantifiers5ieval17TermEvaluatorModeEESt10unique_ptrINS7_13InstEvaluatorESt14default_deleteISB_EESt4lessIS9_ESaIS0_IKS9_SE_EEE3endEv(ptr noundef nonnull align 8 dereferenceable(48) %this) #5 comdat align 2 {
entry:
  %retval = alloca %"struct.std::_Rb_tree_iterator", align 8
  %this.addr = alloca ptr, align 8
  store ptr %this, ptr %this.addr, align 8
  %this1 = load ptr, ptr %this.addr, align 8
  %_M_t = getelementptr inbounds %"class.std::map", ptr %this1, i32 0, i32 0
  %call = call ptr @_ZNSt8_Rb_treeISt4pairIN4cvc58internal12NodeTemplateILb1EEENS2_6theory11quantifiers5ieval17TermEvaluatorModeEES0_IKS9_St10unique_ptrINS7_13InstEvaluatorESt14default_deleteISC_EEESt10_Select1stISG_ESt4lessIS9_ESaISG_EE3endEv(ptr noundef nonnull align 8 dereferenceable(48) %_M_t) #3
  %coerce.dive = getelementptr inbounds %"struct.std::_Rb_tree_iterator", ptr %retval, i32 0, i32 0
  store ptr %call, ptr %coerce.dive, align 8
  %coerce.dive2 = getelementptr inbounds %"struct.std::_Rb_tree_iterator", ptr %retval, i32 0, i32 0
  %0 = load ptr, ptr %coerce.dive2, align 8
  ret ptr %0
}

; Function Attrs: mustprogress nounwind uwtable
define linkonce_odr hidden ptr @_ZNSt3mapISt4pairIN4cvc58internal12NodeTemplateILb1EEENS2_6theory11quantifiers5ieval17TermEvaluatorModeEESt10unique_ptrINS7_13InstEvaluatorESt14default_deleteISB_EESt4lessIS9_ESaIS0_IKS9_SE_EEE5beginEv(ptr noundef nonnull align 8 dereferenceable(48) %this) #5 comdat align 2 {
entry:
  %retval = alloca %"struct.std::_Rb_tree_iterator", align 8
  %this.addr = alloca ptr, align 8
  store ptr %this, ptr %this.addr, align 8
  %this1 = load ptr, ptr %this.addr, align 8
  %_M_t = getelementptr inbounds %"class.std::map", ptr %this1, i32 0, i32 0
  %call = call ptr @_ZNSt8_Rb_treeISt4pairIN4cvc58internal12NodeTemplateILb1EEENS2_6theory11quantifiers5ieval17TermEvaluatorModeEES0_IKS9_St10unique_ptrINS7_13InstEvaluatorESt14default_deleteISC_EEESt10_Select1stISG_ESt4lessIS9_ESaISG_EE5beginEv(ptr noundef nonnull align 8 dereferenceable(48) %_M_t) #3
  %coerce.dive = getelementptr inbounds %"struct.std::_Rb_tree_iterator", ptr %retval, i32 0, i32 0
  store ptr %call, ptr %coerce.dive, align 8
  %coerce.dive2 = getelementptr inbounds %"struct.std::_Rb_tree_iterator", ptr %retval, i32 0, i32 0
  %0 = load ptr, ptr %coerce.dive2, align 8
  ret ptr %0
}

; Function Attrs: mustprogress uwtable
define hidden noundef zeroext i1 @_ZN4cvc58internal6theory11quantifiers5ieval20InstEvaluatorManager5resetENS1_6Theory6EffortE(ptr noundef nonnull align 8 dereferenceable(80) %this, i32 noundef %effort) unnamed_addr #4 align 2 {
entry:
  %this.addr = alloca ptr, align 8
  %effort.addr = alloca i32, align 4
  %__range3 = alloca ptr, align 8
  %__begin3 = alloca %"struct.std::_Rb_tree_iterator", align 8
  %__end3 = alloca %"struct.std::_Rb_tree_iterator", align 8
  %e = alloca ptr, align 8
  store ptr %this, ptr %this.addr, align 8
  store i32 %effort, ptr %effort.addr, align 4
  %this1 = load ptr, ptr %this.addr, align 8
  %d_evals = getelementptr inbounds %"class.cvc5::internal::theory::quantifiers::ieval::InstEvaluatorManager", ptr %this1, i32 0, i32 3
  store ptr %d_evals, ptr %__range3, align 8
  %0 = load ptr, ptr %__range3, align 8
  %call = call ptr @_ZNSt3mapISt4pairIN4cvc58internal12NodeTemplateILb1EEENS2_6theory11quantifiers5ieval17TermEvaluatorModeEESt10unique_ptrINS7_13InstEvaluatorESt14default_deleteISB_EESt4lessIS9_ESaIS0_IKS9_SE_EEE5beginEv(ptr noundef nonnull align 8 dereferenceable(48) %0) #3
  %coerce.dive = getelementptr inbounds %"struct.std::_Rb_tree_iterator", ptr %__begin3, i32 0, i32 0
  store ptr %call, ptr %coerce.dive, align 8
  %1 = load ptr, ptr %__range3, align 8
  %call2 = call ptr @_ZNSt3mapISt4pairIN4cvc58internal12NodeTemplateILb1EEENS2_6theory11quantifiers5ieval17TermEvaluatorModeEESt10unique_ptrINS7_13InstEvaluatorESt14default_deleteISB_EESt4lessIS9_ESaIS0_IKS9_SE_EEE3endEv(ptr noundef nonnull align 8 dereferenceable(48) %1) #3
  %coerce.dive3 = getelementptr inbounds %"struct.std::_Rb_tree_iterator", ptr %__end3, i32 0, i32 0
  store ptr %call2, ptr %coerce.dive3, align 8
  br label %for.cond

for.cond:                                         ; preds = %for.inc, %entry
  %call4 = call noundef zeroext i1 @_ZStneRKSt17_Rb_tree_iteratorISt4pairIKS0_IN4cvc58internal12NodeTemplateILb1EEENS2_6theory11quantifiers5ieval17TermEvaluatorModeEESt10unique_ptrINS7_13InstEvaluatorESt14default_deleteISC_EEEESJ_(ptr noundef nonnull align 8 dereferenceable(8) %__begin3, ptr noundef nonnull align 8 dereferenceable(8) %__end3) #3
  br i1 %call4, label %for.body, label %for.end

for.body:                                         ; preds = %for.cond
  %call5 = call noundef nonnull align 8 dereferenceable(24) ptr @_ZNKSt17_Rb_tree_iteratorISt4pairIKS0_IN4cvc58internal12NodeTemplateILb1EEENS2_6theory11quantifiers5ieval17TermEvaluatorModeEESt10unique_ptrINS7_13InstEvaluatorESt14default_deleteISC_EEEEdeEv(ptr noundef nonnull align 8 dereferenceable(8) %__begin3) #3
  store ptr %call5, ptr %e, align 8
  %2 = load ptr, ptr %e, align 8
  %second = getelementptr inbounds %"struct.std::pair", ptr %2, i32 0, i32 1
  %call6 = call noundef ptr @_ZNKSt10unique_ptrIN4cvc58internal6theory11quantifiers5ieval13InstEvaluatorESt14default_deleteIS5_EEptEv(ptr noundef nonnull align 8 dereferenceable(8) %second) #3
  call void @_ZN4cvc58internal6theory11quantifiers5ieval13InstEvaluator8resetAllEb(ptr noundef nonnull align 8 dereferenceable(1040) %call6, i1 noundef zeroext false)
  br label %for.inc

for.inc:                                          ; preds = %for.body
  %call7 = call noundef nonnull align 8 dereferenceable(8) ptr @_ZNSt17_Rb_tree_iteratorISt4pairIKS0_IN4cvc58internal12NodeTemplateILb1EEENS2_6theory11quantifiers5ieval17TermEvaluatorModeEESt10unique_ptrINS7_13InstEvaluatorESt14default_deleteISC_EEEEppEv(ptr noundef nonnull align 8 dereferenceable(8) %__begin3) #3
  br label %for.cond

for.end:                                          ; preds = %for.cond
  ret i1 true
}