; Function Attrs: mustprogress uwtable
define hidden noundef zeroext i1 @_ZN4cvc58internal6theory11quantifiers5ieval20InstEvaluatorManager5resetENS1_6Theory6EffortE(ptr noundef nonnull readonly align 8 dereferenceable(80) %this, i32 %effort) unnamed_addr #3 align 2 {
entry:
  %_M_left.i.i = getelementptr inbounds i8, ptr %this, i64 56
  %0 = load ptr, ptr %_M_left.i.i, align 8
  %add.ptr.i.i = getelementptr inbounds i8, ptr %this, i64 40
  %cmp.i.not4 = icmp eq ptr %0, %add.ptr.i.i
  br i1 %cmp.i.not4, label %for.end, label %for.body

for.body:                                         ; preds = %entry, %for.body
  %__begin3.sroa.0.05 = phi ptr [ %call.i, %for.body ], [ %0, %entry ]
  %second = getelementptr inbounds i8, ptr %__begin3.sroa.0.05, i64 48
  %1 = load ptr, ptr %second, align 8
  tail call void @_ZN4cvc58internal6theory11quantifiers5ieval13InstEvaluator8resetAllEb(ptr noundef nonnull align 8 dereferenceable(1040) %1, i1 noundef zeroext false)
  %call.i = tail call noundef ptr @_ZSt18_Rb_tree_incrementPSt18_Rb_tree_node_base(ptr noundef %__begin3.sroa.0.05) #11
  %cmp.i.not = icmp eq ptr %call.i, %add.ptr.i.i
  br i1 %cmp.i.not, label %for.end, label %for.body

for.end:                                          ; preds = %for.body, %entry
  ret i1 true
}